target datalayout = "e-m:e-p270:32:32-p271:32:32-p272:64:64-i64:64-i128:128-f80:128-n8:16:32:64-S128"
target triple = "x86_64-pc-linux-gnu"

@.str.12 = private unnamed_addr constant [7 x i8] c"NotSet\00", align 1
@.str.35 = private unnamed_addr constant [5 x i8] c"Add,\00", align 1
@.str.36 = private unnamed_addr constant [8 x i8] c"Remove,\00", align 1
@.str.49 = private unnamed_addr constant [10 x i8] c"Absolute,\00", align 1

; Function Attrs: nounwind uwtable
define dso_local ptr @slurmdb_res_flags_str(i32 noundef %0) #0 {
  %2 = alloca ptr, align 8
  %3 = alloca i32, align 4
  %4 = alloca ptr, align 8
  %5 = alloca i32, align 4
  store i32 %0, ptr %3, align 4
  call void @llvm.lifetime.start.p0(i64 8, ptr %4) #10
  store ptr null, ptr %4, align 8
  %6 = load i32, ptr %3, align 4
  %7 = and i32 %6, 268435456
  %8 = icmp ne i32 %7, 0
  br i1 %8, label %9, label %11

9:                                                ; preds = %1
  %10 = call ptr @xstrdup(ptr noundef @.str.12)
  store ptr %10, ptr %2, align 8
  store i32 1, ptr %5, align 4
  br label %38

11:                                               ; preds = %1
  %12 = load i32, ptr %3, align 4
  %13 = and i32 %12, 536870912
  %14 = icmp ne i32 %13, 0
  br i1 %14, label %15, label %16

15:                                               ; preds = %11
  call void @_xstrcat(ptr noundef %4, ptr noundef @.str.35)
  br label %16

16:                                               ; preds = %15, %11
  %17 = load i32, ptr %3, align 4
  %18 = and i32 %17, 1073741824
  %19 = icmp ne i32 %18, 0
  br i1 %19, label %20, label %21

20:                                               ; preds = %16
  call void @_xstrcat(ptr noundef %4, ptr noundef @.str.36)
  br label %21

21:                                               ; preds = %20, %16
  %22 = load i32, ptr %3, align 4
  %23 = zext i32 %22 to i64
  %24 = and i64 %23, 1
  %25 = icmp ne i64 %24, 0
  br i1 %25, label %26, label %27

26:                                               ; preds = %21
  call void @_xstrcat(ptr noundef %4, ptr noundef @.str.49)
  br label %27

27:                                               ; preds = %26, %21
  %28 = load ptr, ptr %4, align 8
  %29 = icmp ne ptr %28, null
  br i1 %29, label %30, label %36

30:                                               ; preds = %27
  %31 = load ptr, ptr %4, align 8
  %32 = load ptr, ptr %4, align 8
  %33 = call i64 @strlen(ptr noundef %32) #11
  %34 = sub i64 %33, 1
  %35 = getelementptr inbounds nuw i8, ptr %31, i64 %34
  store i8 0, ptr %35, align 1
  br label %36

36:                                               ; preds = %30, %27
  %37 = load ptr, ptr %4, align 8
  store ptr %37, ptr %2, align 8
  store i32 1, ptr %5, align 4
  br label %38

38:                                               ; preds = %36, %9
  call void @llvm.lifetime.end.p0(i64 8, ptr %4) #10
  %39 = load ptr, ptr %2, align 8
  ret ptr %39
}