; Function Attrs: nounwind uwtable
define dso_local ptr @slurmdb_res_flags_str(i32 noundef %0) local_unnamed_addr #0 {
  %2 = alloca ptr, align 8
  call void @llvm.lifetime.start.p0(i64 8, ptr nonnull %2) #19
  store ptr null, ptr %2, align 8
  %3 = and i32 %0, 268435456
  %.not = icmp eq i32 %3, 0
  br i1 %.not, label %6, label %4

4:                                                ; preds = %1
  %5 = tail call ptr @xstrdup(ptr noundef nonnull @.str.12) #19
  br label %21

6:                                                ; preds = %1
  %7 = and i32 %0, 536870912
  %.not5 = icmp eq i32 %7, 0
  br i1 %.not5, label %9, label %8

8:                                                ; preds = %6
  call void @_xstrcat(ptr noundef nonnull %2, ptr noundef nonnull @.str.35) #19
  br label %9

9:                                                ; preds = %8, %6
  %10 = and i32 %0, 1073741824
  %.not6 = icmp eq i32 %10, 0
  br i1 %.not6, label %12, label %11

11:                                               ; preds = %9
  call void @_xstrcat(ptr noundef nonnull %2, ptr noundef nonnull @.str.36) #19
  br label %12

12:                                               ; preds = %11, %9
  %13 = and i32 %0, 1
  %.not7 = icmp eq i32 %13, 0
  br i1 %.not7, label %15, label %14

14:                                               ; preds = %12
  call void @_xstrcat(ptr noundef nonnull %2, ptr noundef nonnull @.str.49) #19
  br label %15

15:                                               ; preds = %14, %12
  %16 = load ptr, ptr %2, align 8
  %.not8 = icmp eq ptr %16, null
  br i1 %.not8, label %21, label %17

17:                                               ; preds = %15
  %18 = call i64 @strlen(ptr noundef nonnull dereferenceable(1) %16) #20
  %19 = getelementptr i8, ptr %16, i64 %18
  %20 = getelementptr i8, ptr %19, i64 -1
  store i8 0, ptr %20, align 1
  %.pre = load ptr, ptr %2, align 8
  br label %21

21:                                               ; preds = %15, %17, %4
  %.0 = phi ptr [ %5, %4 ], [ %.pre, %17 ], [ null, %15 ]
  call void @llvm.lifetime.end.p0(i64 8, ptr nonnull %2) #19
  ret ptr %.0
}